target datalayout = "e-m:e-p270:32:32-p271:32:32-p272:64:64-i64:64-i128:128-f80:128-n8:16:32:64-S128"
target triple = "x86_64-pc-linux-gnu"

@bio_err = external global ptr, align 8
@.str.131 = private unnamed_addr constant [41 x i8] c"hex string is too long, ignoring excess\0A\00", align 1
@.str.132 = private unnamed_addr constant [60 x i8] c"hex string is too short, padding with zero bytes to length\0A\00", align 1
@.str.133 = private unnamed_addr constant [15 x i8] c"non-hex digit\0A\00", align 1

; Function Attrs: nounwind uwtable
define internal i32 @set_hex(ptr noundef %0, ptr noundef %1, i32 noundef %2) #0 {
  %4 = alloca i32, align 4
  %5 = alloca ptr, align 8
  %6 = alloca ptr, align 8
  %7 = alloca i32, align 4
  %8 = alloca i32, align 4
  %9 = alloca i32, align 4
  %10 = alloca i8, align 1
  %11 = alloca i32, align 4
  store ptr %0, ptr %5, align 8, !tbaa !21
  store ptr %1, ptr %6, align 8, !tbaa !21
  store i32 %2, ptr %7, align 4, !tbaa !4
  call void @llvm.lifetime.start.p0(i64 4, ptr %8) #8
  call void @llvm.lifetime.start.p0(i64 4, ptr %9) #8
  call void @llvm.lifetime.start.p0(i64 1, ptr %10) #8
  %12 = load i32, ptr %7, align 4, !tbaa !4
  %13 = mul nsw i32 %12, 2
  store i32 %13, ptr %8, align 4, !tbaa !4
  %14 = load ptr, ptr %5, align 8, !tbaa !21
  %15 = call i64 @strlen(ptr noundef %14) #9
  %16 = trunc i64 %15 to i32
  store i32 %16, ptr %9, align 4, !tbaa !4
  %17 = load i32, ptr %9, align 4, !tbaa !4
  %18 = load i32, ptr %8, align 4, !tbaa !4
  %19 = icmp sgt i32 %17, %18
  br i1 %19, label %20, label %24

20:                                               ; preds = %3
  %21 = load ptr, ptr @bio_err, align 8, !tbaa !13
  %22 = call i32 (ptr, ptr, ...) @BIO_printf(ptr noundef %21, ptr noundef @.str.131)
  %23 = load i32, ptr %8, align 4, !tbaa !4
  store i32 %23, ptr %9, align 4, !tbaa !4
  br label %32

24:                                               ; preds = %3
  %25 = load i32, ptr %9, align 4, !tbaa !4
  %26 = load i32, ptr %8, align 4, !tbaa !4
  %27 = icmp slt i32 %25, %26
  br i1 %27, label %28, label %31

28:                                               ; preds = %24
  %29 = load ptr, ptr @bio_err, align 8, !tbaa !13
  %30 = call i32 (ptr, ptr, ...) @BIO_printf(ptr noundef %29, ptr noundef @.str.132)
  br label %31

31:                                               ; preds = %28, %24
  br label %32

32:                                               ; preds = %31, %20
  %33 = load ptr, ptr %6, align 8, !tbaa !21
  %34 = load i32, ptr %7, align 4, !tbaa !4
  %35 = sext i32 %34 to i64
  call void @llvm.memset.p0.i64(ptr align 1 %33, i8 0, i64 %35, i1 false)
  store i32 0, ptr %8, align 4, !tbaa !4
  br label %36

36:                                               ; preds = %87, %32
  %37 = load i32, ptr %8, align 4, !tbaa !4
  %38 = load i32, ptr %9, align 4, !tbaa !4
  %39 = icmp slt i32 %37, %38
  br i1 %39, label %40, label %90

40:                                               ; preds = %36
  %41 = load ptr, ptr %5, align 8, !tbaa !21
  %42 = getelementptr inbounds nuw i8, ptr %41, i32 1
  store ptr %42, ptr %5, align 8, !tbaa !21
  %43 = load i8, ptr %41, align 1, !tbaa !32
  store i8 %43, ptr %10, align 1, !tbaa !32
  %44 = call ptr @__ctype_b_loc() #10
  %45 = load ptr, ptr %44, align 8, !tbaa !49
  %46 = load i8, ptr %10, align 1, !tbaa !32
  %47 = zext i8 %46 to i32
  %48 = sext i32 %47 to i64
  %49 = getelementptr inbounds i16, ptr %45, i64 %48
  %50 = load i16, ptr %49, align 2, !tbaa !53
  %51 = zext i16 %50 to i32
  %52 = and i32 %51, 4096
  %53 = icmp ne i32 %52, 0
  br i1 %53, label %57, label %54

54:                                               ; preds = %40
  %55 = load ptr, ptr @bio_err, align 8, !tbaa !13
  %56 = call i32 (ptr, ptr, ...) @BIO_printf(ptr noundef %55, ptr noundef @.str.133)
  store i32 0, ptr %4, align 4
  store i32 1, ptr %11, align 4
  br label %91

57:                                               ; preds = %40
  %58 = load i8, ptr %10, align 1, !tbaa !32
  %59 = call i32 @OPENSSL_hexchar2int(i8 noundef zeroext %58)
  %60 = trunc i32 %59 to i8
  store i8 %60, ptr %10, align 1, !tbaa !32
  %61 = load i32, ptr %8, align 4, !tbaa !4
  %62 = and i32 %61, 1
  %63 = icmp ne i32 %62, 0
  br i1 %63, label %64, label %76

64:                                               ; preds = %57
  %65 = load i8, ptr %10, align 1, !tbaa !32
  %66 = zext i8 %65 to i32
  %67 = load ptr, ptr %6, align 8, !tbaa !21
  %68 = load i32, ptr %8, align 4, !tbaa !4
  %69 = sdiv i32 %68, 2
  %70 = sext i32 %69 to i64
  %71 = getelementptr inbounds i8, ptr %67, i64 %70
  %72 = load i8, ptr %71, align 1, !tbaa !32
  %73 = zext i8 %72 to i32
  %74 = or i32 %73, %66
  %75 = trunc i32 %74 to i8
  store i8 %75, ptr %71, align 1, !tbaa !32
  br label %86

76:                                               ; preds = %57
  %77 = load i8, ptr %10, align 1, !tbaa !32
  %78 = zext i8 %77 to i32
  %79 = shl i32 %78, 4
  %80 = trunc i32 %79 to i8
  %81 = load ptr, ptr %6, align 8, !tbaa !21
  %82 = load i32, ptr %8, align 4, !tbaa !4
  %83 = sdiv i32 %82, 2
  %84 = sext i32 %83 to i64
  %85 = getelementptr inbounds i8, ptr %81, i64 %84
  store i8 %80, ptr %85, align 1, !tbaa !32
  br label %86

86:                                               ; preds = %76, %64
  br label %87

87:                                               ; preds = %86
  %88 = load i32, ptr %8, align 4, !tbaa !4
  %89 = add nsw i32 %88, 1
  store i32 %89, ptr %8, align 4, !tbaa !4
  br label %36, !llvm.loop !55

90:                                               ; preds = %36
  store i32 1, ptr %4, align 4
  store i32 1, ptr %11, align 4
  br label %91

91:                                               ; preds = %90, %54
  call void @llvm.lifetime.end.p0(i64 1, ptr %10) #8
  call void @llvm.lifetime.end.p0(i64 4, ptr %9) #8
  call void @llvm.lifetime.end.p0(i64 4, ptr %8) #8
  %92 = load i32, ptr %4, align 4
  ret i32 %92
}