; Function Attrs: nounwind uwtable
define internal fastcc range(i32 0, 2) i32 @set_hex(ptr noundef nonnull readonly captures(none) %0, ptr noundef nonnull captures(none) %1, i32 noundef %2) unnamed_addr #0 {
  %4 = shl nsw i32 %2, 1
  %5 = tail call i64 @strlen(ptr noundef nonnull dereferenceable(1) %0) #12
  %6 = trunc i64 %5 to i32
  %7 = icmp slt i32 %4, %6
  br i1 %7, label %.sink.split, label %8

8:                                                ; preds = %3
  %9 = icmp sgt i32 %4, %6
  br i1 %9, label %.sink.split, label %12

.sink.split:                                      ; preds = %8, %3
  %.str.132.sink = phi ptr [ @.str.131, %3 ], [ @.str.132, %8 ]
  %.0.ph = phi i32 [ %4, %3 ], [ %6, %8 ]
  %10 = load ptr, ptr @bio_err, align 8, !tbaa !19
  %11 = tail call i32 (ptr, ptr, ...) @BIO_printf(ptr noundef %10, ptr noundef nonnull %.str.132.sink) #11
  br label %12

12:                                               ; preds = %.sink.split, %8
  %.0 = phi i32 [ %6, %8 ], [ %.0.ph, %.sink.split ]
  %13 = sext i32 %2 to i64
  tail call void @llvm.memset.p0.i64(ptr nonnull align 1 %1, i8 0, i64 %13, i1 false)
  %14 = icmp sgt i32 %.0, 0
  br i1 %14, label %.lr.ph, label %.loopexit

.lr.ph:                                           ; preds = %12
  %15 = tail call ptr @__ctype_b_loc() #13
  br label %16

16:                                               ; preds = %.lr.ph, %42
  %.02229 = phi i32 [ 0, %.lr.ph ], [ %43, %42 ]
  %.02428 = phi ptr [ %0, %.lr.ph ], [ %17, %42 ]
  %17 = getelementptr inbounds nuw i8, ptr %.02428, i64 1
  %18 = load i8, ptr %.02428, align 1, !tbaa !24
  %19 = load ptr, ptr %15, align 8, !tbaa !32
  %20 = zext i8 %18 to i64
  %21 = getelementptr inbounds nuw i16, ptr %19, i64 %20
  %22 = load i16, ptr %21, align 2, !tbaa !36
  %23 = and i16 %22, 4096
  %.not = icmp eq i16 %23, 0
  br i1 %.not, label %24, label %27

24:                                               ; preds = %16
  %25 = load ptr, ptr @bio_err, align 8, !tbaa !19
  %26 = tail call i32 (ptr, ptr, ...) @BIO_printf(ptr noundef %25, ptr noundef nonnull @.str.133) #11
  br label %.loopexit

27:                                               ; preds = %16
  %28 = tail call i32 @OPENSSL_hexchar2int(i8 noundef zeroext %18) #11
  %29 = and i32 %.02229, 1
  %.not27 = icmp eq i32 %29, 0
  br i1 %.not27, label %37, label %30

30:                                               ; preds = %27
  %31 = lshr i32 %.02229, 1
  %32 = zext nneg i32 %31 to i64
  %33 = getelementptr inbounds nuw i8, ptr %1, i64 %32
  %34 = load i8, ptr %33, align 1, !tbaa !24
  %35 = trunc i32 %28 to i8
  %36 = or i8 %34, %35
  store i8 %36, ptr %33, align 1, !tbaa !24
  br label %42

37:                                               ; preds = %27
  %.tr = trunc i32 %28 to i8
  %38 = shl i8 %.tr, 4
  %39 = lshr exact i32 %.02229, 1
  %40 = zext nneg i32 %39 to i64
  %41 = getelementptr inbounds nuw i8, ptr %1, i64 %40
  store i8 %38, ptr %41, align 1, !tbaa !24
  br label %42

42:                                               ; preds = %30, %37
  %43 = add nuw nsw i32 %.02229, 1
  %exitcond.not = icmp eq i32 %43, %.0
  br i1 %exitcond.not, label %.loopexit, label %16, !llvm.loop !38

.loopexit:                                        ; preds = %42, %12, %24
  %.023 = phi i32 [ 0, %24 ], [ 1, %12 ], [ 1, %42 ]
  ret i32 %.023
}